; Function Attrs: mustprogress uwtable
define internal { double, double } @_ZL15goode_s_forward5PJ_LPP8PJconsts(double %0, double %1, ptr nocapture noundef readonly %2) #0 {
  %4 = getelementptr inbounds i8, ptr %2, i64 88
  %5 = load ptr, ptr %4, align 8
  %6 = tail call double @llvm.fabs.f64(double %1)
  %7 = fcmp ugt double %6, 0x3FE6BFF1E94A3A44
  br i1 %7, label %14, label %8

8:                                                ; preds = %3
  %9 = load ptr, ptr %5, align 8
  %10 = getelementptr inbounds i8, ptr %9, i64 104
  %11 = load ptr, ptr %10, align 8
  %12 = tail call { double, double } %11(double %0, double %1, ptr noundef %9)
  %13 = extractvalue { double, double } %12, 1
  br label %24

14:                                               ; preds = %3
  %15 = getelementptr inbounds i8, ptr %5, i64 8
  %16 = load ptr, ptr %15, align 8
  %17 = getelementptr inbounds i8, ptr %16, i64 104
  %18 = load ptr, ptr %17, align 8
  %19 = tail call { double, double } %18(double %0, double %1, ptr noundef %16)
  %20 = extractvalue { double, double } %19, 1
  %21 = fcmp oge double %1, 0.000000e+00
  %22 = select i1 %21, double 5.280000e-02, double -5.280000e-02
  %23 = fsub double %20, %22
  br label %24

24:                                               ; preds = %14, %8
  %.pn = phi { double, double } [ %12, %8 ], [ %19, %14 ]
  %.sroa.314.0 = phi double [ %13, %8 ], [ %23, %14 ]
  %.fca.1.insert = insertvalue { double, double } %.pn, double %.sroa.314.0, 1
  ret { double, double } %.fca.1.insert
}